; Function Attrs: mustprogress uwtable
define void @_ZN6icu_756number24LocalizedNumberFormatterC2ERKNS0_23NumberFormatterSettingsIS1_EE(ptr noundef nonnull align 8 dereferenceable(496) %this, ptr noundef nonnull align 8 dereferenceable(472) %other) unnamed_addr #1 align 2 personality ptr @__gxx_personality_v0 {
entry:
  %localStatus = alloca i32, align 4
  tail call void @_ZN6icu_756number4impl10MacroPropsC2ERKS2_(ptr noundef nonnull align 8 dereferenceable(472) %this, ptr noundef nonnull align 8 dereferenceable(472) %other)
  %fCompiled = getelementptr inbounds i8, ptr %this, i64 472
  tail call void @llvm.memset.p0.i64(ptr noundef nonnull align 8 dereferenceable(24) %fCompiled, i8 0, i64 24, i1 false)
  store i32 0, ptr %localStatus, align 4
  invoke void @_ZN6icu_756number24LocalizedNumberFormatter13lnfCopyHelperERKS1_R10UErrorCode(ptr noundef nonnull align 8 dereferenceable(496) %this, ptr nonnull align 8 poison, ptr noundef nonnull align 4 dereferenceable(4) %localStatus)
          to label %invoke.cont unwind label %lpad

invoke.cont:                                      ; preds = %entry
  ret void

lpad:                                             ; preds = %entry
  %0 = landingpad { ptr, i32 }
          cleanup
  call void @_ZN6icu_756number23NumberFormatterSettingsINS0_24LocalizedNumberFormatterEED2Ev(ptr noundef nonnull align 8 dereferenceable(472) %this) #14
  resume { ptr, i32 } %0
}